; Function Attrs: mustprogress nounwind uwtable
define noundef nonnull align 8 dereferenceable(8) ptr @_ZN10open_spiel6ThreadaSEOS0_(ptr noundef nonnull returned align 8 dereferenceable(8) %0, ptr nocapture noundef nonnull align 8 dereferenceable(8) %1) local_unnamed_addr #3 align 2 personality ptr @__gxx_personality_v0 {
  %3 = load ptr, ptr %1, align 8
  store ptr null, ptr %1, align 8
  %4 = load ptr, ptr %0, align 8
  store ptr %3, ptr %0, align 8
  %.not.i.i.i.i = icmp eq ptr %4, null
  br i1 %.not.i.i.i.i, label %_ZNSt10unique_ptrIN10open_spiel6Thread10ThreadImplESt14default_deleteIS2_EEaSEOS5_.exit, label %5

5:                                                ; preds = %2
  %.sroa.0.0.copyload.i.i.i.i.i.i.i.i = load i64, ptr %4, align 8
  %.not.i.i.i.i.i.i.i = icmp eq i64 %.sroa.0.0.copyload.i.i.i.i.i.i.i.i, 0
  br i1 %.not.i.i.i.i.i.i.i, label %_ZNKSt14default_deleteIN10open_spiel6Thread10ThreadImplEEclEPS2_.exit.i.i.i.i, label %6

6:                                                ; preds = %5
  tail call void @_ZSt9terminatev() #13
  unreachable

_ZNKSt14default_deleteIN10open_spiel6Thread10ThreadImplEEclEPS2_.exit.i.i.i.i: ; preds = %5
  tail call void @_ZdlPvm(ptr noundef nonnull %4, i64 noundef 8) #12
  br label %_ZNSt10unique_ptrIN10open_spiel6Thread10ThreadImplESt14default_deleteIS2_EEaSEOS5_.exit

_ZNSt10unique_ptrIN10open_spiel6Thread10ThreadImplESt14default_deleteIS2_EEaSEOS5_.exit: ; preds = %2, %_ZNKSt14default_deleteIN10open_spiel6Thread10ThreadImplEEclEPS2_.exit.i.i.i.i
  ret ptr %0
}